target datalayout = "e-m:e-p270:32:32-p271:32:32-p272:64:64-i64:64-i128:128-f80:128-n8:16:32:64-S128"
target triple = "x86_64-pc-linux-gnu"

@_ZL14g_bOverAllocDD = internal global i8 0, align 1

; Function Attrs: mustprogress nounwind uwtable
define noundef i32 @_Z13over_alloc_ddi(i32 noundef %0) #4 {
  %2 = alloca i32, align 4
  %3 = alloca i32, align 4
  store i32 %0, ptr %3, align 4
  %4 = load i8, ptr @_ZL14g_bOverAllocDD, align 1
  %5 = trunc i8 %4 to i1
  br i1 %5, label %6, label %11

6:                                                ; preds = %1
  %7 = load i32, ptr %3, align 4
  %8 = sitofp i32 %7 to float
  %9 = call float @llvm.fmuladd.f32(float 0x3FF30A3D80000000, float %8, float 1.000000e+02)
  %10 = fptosi float %9 to i32
  store i32 %10, ptr %2, align 4
  br label %13

11:                                               ; preds = %1
  %12 = load i32, ptr %3, align 4
  store i32 %12, ptr %2, align 4
  br label %13

13:                                               ; preds = %11, %6
  %14 = load i32, ptr %2, align 4
  ret i32 %14
}