; Function Attrs: mustprogress nofree norecurse nosync nounwind willreturn memory(read, argmem: none, inaccessiblemem: none) uwtable
define noundef i32 @_Z13over_alloc_ddi(i32 noundef %0) local_unnamed_addr #13 {
  %2 = load i8, ptr @_ZL14g_bOverAllocDD, align 1
  %3 = trunc nuw i8 %2 to i1
  %4 = sitofp i32 %0 to float
  %5 = tail call float @llvm.fmuladd.f32(float %4, float 0x3FF30A3D80000000, float 1.000000e+02)
  %6 = fptosi float %5 to i32
  %.0 = select i1 %3, i32 %6, i32 %0
  ret i32 %.0
}